target datalayout = "e-m:e-p270:32:32-p271:32:32-p272:64:64-i64:64-i128:128-f80:128-n8:16:32:64-S128"
target triple = "x86_64-pc-linux-gnu"

%struct._MRIStepInnerStepper = type { ptr, ptr, ptr, ptr, i32, i32, i32, double, double, ptr, ptr, i64, i64, i64, i64 }

@.str = private unnamed_addr constant [123 x i8] c"generated/home/dtcxzyw/WorkSpace/Projects/compilers/llvm-opt-benchmark/bench/sundials/sundials/src/arkode/arkode_mristep.c\00", align 1
@.str.7 = private unnamed_addr constant [33 x i8] c"Allocation of arkode_mem failed.\00", align 1
@__func__.MRIStepInnerStepper_Create = private unnamed_addr constant [27 x i8] c"MRIStepInnerStepper_Create\00", align 1

; Function Attrs: nounwind uwtable
define i32 @MRIStepInnerStepper_Create(ptr noundef %0, ptr noundef %1) #0 {
  %3 = alloca i32, align 4
  %4 = alloca ptr, align 8
  %5 = alloca ptr, align 8
  store ptr %0, ptr %4, align 8, !tbaa !13
  store ptr %1, ptr %5, align 8, !tbaa !255
  %6 = load ptr, ptr %4, align 8, !tbaa !13
  %7 = icmp ne ptr %6, null
  br i1 %7, label %9, label %8

8:                                                ; preds = %2
  store i32 -22, ptr %3, align 4
  br label %44

9:                                                ; preds = %2
  %10 = load ptr, ptr %5, align 8, !tbaa !255
  store ptr null, ptr %10, align 8, !tbaa !11
  %11 = call noalias ptr @malloc(i64 noundef 112) #10
  %12 = load ptr, ptr %5, align 8, !tbaa !255
  store ptr %11, ptr %12, align 8, !tbaa !11
  %13 = load ptr, ptr %5, align 8, !tbaa !255
  %14 = load ptr, ptr %13, align 8, !tbaa !11
  %15 = icmp eq ptr %14, null
  br i1 %15, label %16, label %17

16:                                               ; preds = %9
  call void (ptr, i32, i32, ptr, ptr, ptr, ...) @arkProcessError(ptr noundef null, i32 noundef -20, i32 noundef 4266, ptr noundef @__func__.MRIStepInnerStepper_Create, ptr noundef @.str, ptr noundef @.str.7)
  store i32 -20, ptr %3, align 4
  br label %44

17:                                               ; preds = %9
  %18 = load ptr, ptr %5, align 8, !tbaa !255
  %19 = load ptr, ptr %18, align 8, !tbaa !11
  call void @llvm.memset.p0.i64(ptr align 8 %19, i8 0, i64 112, i1 false)
  %20 = call noalias ptr @malloc(i64 noundef 48) #10
  %21 = load ptr, ptr %5, align 8, !tbaa !255
  %22 = load ptr, ptr %21, align 8, !tbaa !11
  %23 = getelementptr inbounds nuw %struct._MRIStepInnerStepper, ptr %22, i32 0, i32 1
  store ptr %20, ptr %23, align 8, !tbaa !173
  %24 = load ptr, ptr %5, align 8, !tbaa !255
  %25 = load ptr, ptr %24, align 8, !tbaa !11
  %26 = getelementptr inbounds nuw %struct._MRIStepInnerStepper, ptr %25, i32 0, i32 1
  %27 = load ptr, ptr %26, align 8, !tbaa !173
  %28 = icmp eq ptr %27, null
  br i1 %28, label %29, label %32

29:                                               ; preds = %17
  call void (ptr, i32, i32, ptr, ptr, ptr, ...) @arkProcessError(ptr noundef null, i32 noundef -20, i32 noundef 4275, ptr noundef @__func__.MRIStepInnerStepper_Create, ptr noundef @.str, ptr noundef @.str.7)
  %30 = load ptr, ptr %5, align 8, !tbaa !255
  %31 = load ptr, ptr %30, align 8, !tbaa !11
  call void @free(ptr noundef %31) #8
  store i32 -20, ptr %3, align 4
  br label %44

32:                                               ; preds = %17
  %33 = load ptr, ptr %5, align 8, !tbaa !255
  %34 = load ptr, ptr %33, align 8, !tbaa !11
  %35 = getelementptr inbounds nuw %struct._MRIStepInnerStepper, ptr %34, i32 0, i32 1
  %36 = load ptr, ptr %35, align 8, !tbaa !173
  call void @llvm.memset.p0.i64(ptr align 8 %36, i8 0, i64 48, i1 false)
  %37 = load ptr, ptr %5, align 8, !tbaa !255
  %38 = load ptr, ptr %37, align 8, !tbaa !11
  %39 = getelementptr inbounds nuw %struct._MRIStepInnerStepper, ptr %38, i32 0, i32 6
  store i32 0, ptr %39, align 8, !tbaa !229
  %40 = load ptr, ptr %4, align 8, !tbaa !13
  %41 = load ptr, ptr %5, align 8, !tbaa !255
  %42 = load ptr, ptr %41, align 8, !tbaa !11
  %43 = getelementptr inbounds nuw %struct._MRIStepInnerStepper, ptr %42, i32 0, i32 2
  store ptr %40, ptr %43, align 8, !tbaa !257
  store i32 0, ptr %3, align 4
  br label %44

44:                                               ; preds = %32, %29, %16, %8
  %45 = load i32, ptr %3, align 4
  ret i32 %45
}