; Function Attrs: nounwind uwtable
define range(i32 -22, 1) i32 @MRIStepInnerStepper_Create(ptr noundef %0, ptr noundef captures(none) %1) local_unnamed_addr #0 {
  %.not = icmp eq ptr %0, null
  br i1 %.not, label %14, label %3

3:                                                ; preds = %2
  %calloc15 = tail call dereferenceable_or_null(112) ptr @calloc(i64 1, i64 112)
  store ptr %calloc15, ptr %1, align 8, !tbaa !240
  %4 = icmp eq ptr %calloc15, null
  br i1 %4, label %5, label %6

5:                                                ; preds = %3
  tail call void (ptr, i32, i32, ptr, ptr, ptr, ...) @arkProcessError(ptr noundef null, i32 noundef -20, i32 noundef 4266, ptr noundef nonnull @__func__.MRIStepInnerStepper_Create, ptr noundef nonnull @.str, ptr noundef nonnull @.str.7) #14
  br label %14

6:                                                ; preds = %3
  %calloc = tail call dereferenceable_or_null(48) ptr @calloc(i64 1, i64 48)
  %7 = getelementptr inbounds nuw i8, ptr %calloc15, i64 8
  store ptr %calloc, ptr %7, align 8, !tbaa !103
  %8 = icmp eq ptr %calloc, null
  br i1 %8, label %9, label %11

9:                                                ; preds = %6
  tail call void (ptr, i32, i32, ptr, ptr, ptr, ...) @arkProcessError(ptr noundef null, i32 noundef -20, i32 noundef 4275, ptr noundef nonnull @__func__.MRIStepInnerStepper_Create, ptr noundef nonnull @.str, ptr noundef nonnull @.str.7) #14
  %10 = load ptr, ptr %1, align 8, !tbaa !240
  tail call void @free(ptr noundef %10) #14
  br label %14

11:                                               ; preds = %6
  %12 = getelementptr inbounds nuw i8, ptr %calloc15, i64 40
  store i32 0, ptr %12, align 8, !tbaa !166
  %13 = getelementptr inbounds nuw i8, ptr %calloc15, i64 16
  store ptr %0, ptr %13, align 8, !tbaa !241
  br label %14

14:                                               ; preds = %2, %11, %9, %5
  %.0 = phi i32 [ -20, %5 ], [ -20, %9 ], [ 0, %11 ], [ -22, %2 ]
  ret i32 %.0
}